target datalayout = "e-m:e-p270:32:32-p271:32:32-p272:64:64-i64:64-i128:128-f80:128-n8:16:32:64-S128"
target triple = "x86_64-unknown-linux-gnu"

@.str = private unnamed_addr constant [28 x i8] c"riscv,event-to-mhpmcounters\00", align 1

; Function Attrs: nounwind sspstrong uwtable
define internal i32 @cpu_to_be32(i32 noundef %v) #0 {
entry:
  %v.addr = alloca i32, align 4
  store i32 %v, ptr %v.addr, align 4
  %0 = load i32, ptr %v.addr, align 4
  %1 = call i32 @llvm.bswap.i32(i32 %0)
  ret i32 %1
}

; Function Attrs: nounwind sspstrong uwtable
define dso_local void @riscv_pmu_generate_fdt_node(ptr noundef %fdt, i32 noundef %cmask, ptr noundef %pmu_name) #0 {
entry:
  %fdt.addr = alloca ptr, align 8
  %cmask.addr = alloca i32, align 4
  %pmu_name.addr = alloca ptr, align 8
  %fdt_event_ctr_map = alloca [15 x i32], align 16
  store ptr %fdt, ptr %fdt.addr, align 8
  store i32 %cmask, ptr %cmask.addr, align 4
  store ptr %pmu_name, ptr %pmu_name.addr, align 8
  call void @llvm.memset.p0.i64(ptr align 16 %fdt_event_ctr_map, i8 0, i64 60, i1 false)
  %call = call i32 @cpu_to_be32(i32 noundef 1)
  %arrayidx = getelementptr [15 x i32], ptr %fdt_event_ctr_map, i64 0, i64 0
  store i32 %call, ptr %arrayidx, align 16
  %call1 = call i32 @cpu_to_be32(i32 noundef 1)
  %arrayidx2 = getelementptr [15 x i32], ptr %fdt_event_ctr_map, i64 0, i64 1
  store i32 %call1, ptr %arrayidx2, align 4
  %0 = load i32, ptr %cmask.addr, align 4
  %or = or i32 %0, 1
  %call3 = call i32 @cpu_to_be32(i32 noundef %or)
  %arrayidx4 = getelementptr [15 x i32], ptr %fdt_event_ctr_map, i64 0, i64 2
  store i32 %call3, ptr %arrayidx4, align 8
  %call5 = call i32 @cpu_to_be32(i32 noundef 2)
  %arrayidx6 = getelementptr [15 x i32], ptr %fdt_event_ctr_map, i64 0, i64 3
  store i32 %call5, ptr %arrayidx6, align 4
  %call7 = call i32 @cpu_to_be32(i32 noundef 2)
  %arrayidx8 = getelementptr [15 x i32], ptr %fdt_event_ctr_map, i64 0, i64 4
  store i32 %call7, ptr %arrayidx8, align 16
  %1 = load i32, ptr %cmask.addr, align 4
  %or9 = or i32 %1, 4
  %call10 = call i32 @cpu_to_be32(i32 noundef %or9)
  %arrayidx11 = getelementptr [15 x i32], ptr %fdt_event_ctr_map, i64 0, i64 5
  store i32 %call10, ptr %arrayidx11, align 4
  %call12 = call i32 @cpu_to_be32(i32 noundef 65561)
  %arrayidx13 = getelementptr [15 x i32], ptr %fdt_event_ctr_map, i64 0, i64 6
  store i32 %call12, ptr %arrayidx13, align 8
  %call14 = call i32 @cpu_to_be32(i32 noundef 65561)
  %arrayidx15 = getelementptr [15 x i32], ptr %fdt_event_ctr_map, i64 0, i64 7
  store i32 %call14, ptr %arrayidx15, align 4
  %2 = load i32, ptr %cmask.addr, align 4
  %call16 = call i32 @cpu_to_be32(i32 noundef %2)
  %arrayidx17 = getelementptr [15 x i32], ptr %fdt_event_ctr_map, i64 0, i64 8
  store i32 %call16, ptr %arrayidx17, align 16
  %call18 = call i32 @cpu_to_be32(i32 noundef 65563)
  %arrayidx19 = getelementptr [15 x i32], ptr %fdt_event_ctr_map, i64 0, i64 9
  store i32 %call18, ptr %arrayidx19, align 4
  %call20 = call i32 @cpu_to_be32(i32 noundef 65563)
  %arrayidx21 = getelementptr [15 x i32], ptr %fdt_event_ctr_map, i64 0, i64 10
  store i32 %call20, ptr %arrayidx21, align 8
  %3 = load i32, ptr %cmask.addr, align 4
  %call22 = call i32 @cpu_to_be32(i32 noundef %3)
  %arrayidx23 = getelementptr [15 x i32], ptr %fdt_event_ctr_map, i64 0, i64 11
  store i32 %call22, ptr %arrayidx23, align 4
  %call24 = call i32 @cpu_to_be32(i32 noundef 65569)
  %arrayidx25 = getelementptr [15 x i32], ptr %fdt_event_ctr_map, i64 0, i64 12
  store i32 %call24, ptr %arrayidx25, align 16
  %call26 = call i32 @cpu_to_be32(i32 noundef 65569)
  %arrayidx27 = getelementptr [15 x i32], ptr %fdt_event_ctr_map, i64 0, i64 13
  store i32 %call26, ptr %arrayidx27, align 4
  %4 = load i32, ptr %cmask.addr, align 4
  %call28 = call i32 @cpu_to_be32(i32 noundef %4)
  %arrayidx29 = getelementptr [15 x i32], ptr %fdt_event_ctr_map, i64 0, i64 14
  store i32 %call28, ptr %arrayidx29, align 8
  %5 = load ptr, ptr %fdt.addr, align 8
  %6 = load ptr, ptr %pmu_name.addr, align 8
  %arraydecay = getelementptr inbounds [15 x i32], ptr %fdt_event_ctr_map, i64 0, i64 0
  %call30 = call i32 @qemu_fdt_setprop(ptr noundef %5, ptr noundef %6, ptr noundef @.str, ptr noundef %arraydecay, i32 noundef 60)
  ret void
}