; Function Attrs: nounwind sspstrong uwtable
define dso_local void @riscv_pmu_generate_fdt_node(ptr noundef %fdt, i32 noundef %cmask, ptr noundef %pmu_name) local_unnamed_addr #0 {
entry:
  %fdt_event_ctr_map = alloca [15 x i32], align 16
  store i32 16777216, ptr %fdt_event_ctr_map, align 16
  %arrayidx2 = getelementptr inbounds nuw i8, ptr %fdt_event_ctr_map, i64 4
  store i32 16777216, ptr %arrayidx2, align 4
  %or = or i32 %cmask, 1
  %0 = tail call noundef i32 @llvm.bswap.i32(i32 %or)
  %arrayidx4 = getelementptr inbounds nuw i8, ptr %fdt_event_ctr_map, i64 8
  store i32 %0, ptr %arrayidx4, align 8
  %arrayidx6 = getelementptr inbounds nuw i8, ptr %fdt_event_ctr_map, i64 12
  store i32 33554432, ptr %arrayidx6, align 4
  %arrayidx8 = getelementptr inbounds nuw i8, ptr %fdt_event_ctr_map, i64 16
  store i32 33554432, ptr %arrayidx8, align 16
  %or9 = or i32 %cmask, 4
  %1 = tail call noundef i32 @llvm.bswap.i32(i32 %or9)
  %arrayidx11 = getelementptr inbounds nuw i8, ptr %fdt_event_ctr_map, i64 20
  store i32 %1, ptr %arrayidx11, align 4
  %arrayidx13 = getelementptr inbounds nuw i8, ptr %fdt_event_ctr_map, i64 24
  store i32 419430656, ptr %arrayidx13, align 8
  %arrayidx15 = getelementptr inbounds nuw i8, ptr %fdt_event_ctr_map, i64 28
  store i32 419430656, ptr %arrayidx15, align 4
  %2 = tail call noundef i32 @llvm.bswap.i32(i32 %cmask)
  %arrayidx17 = getelementptr inbounds nuw i8, ptr %fdt_event_ctr_map, i64 32
  store i32 %2, ptr %arrayidx17, align 16
  %arrayidx19 = getelementptr inbounds nuw i8, ptr %fdt_event_ctr_map, i64 36
  store i32 452985088, ptr %arrayidx19, align 4
  %arrayidx21 = getelementptr inbounds nuw i8, ptr %fdt_event_ctr_map, i64 40
  store i32 452985088, ptr %arrayidx21, align 8
  %arrayidx23 = getelementptr inbounds nuw i8, ptr %fdt_event_ctr_map, i64 44
  store i32 %2, ptr %arrayidx23, align 4
  %arrayidx25 = getelementptr inbounds nuw i8, ptr %fdt_event_ctr_map, i64 48
  store i32 553648384, ptr %arrayidx25, align 16
  %arrayidx27 = getelementptr inbounds nuw i8, ptr %fdt_event_ctr_map, i64 52
  store i32 553648384, ptr %arrayidx27, align 4
  %arrayidx29 = getelementptr inbounds nuw i8, ptr %fdt_event_ctr_map, i64 56
  store i32 %2, ptr %arrayidx29, align 8
  %call30 = call i32 @qemu_fdt_setprop(ptr noundef %fdt, ptr noundef %pmu_name, ptr noundef nonnull @.str, ptr noundef nonnull %fdt_event_ctr_map, i32 noundef 60) #6
  ret void
}